; Function Attrs: null_pointer_is_valid sspstrong uwtable
define hidden i32 @mapi_dissect_struct_OpenEmbeddedMessage_repl(ptr noundef %0, i32 noundef %1, ptr noundef %2, ptr noundef %3, ptr noundef %4, ptr noundef %5, i32 noundef %6, i32 %7) local_unnamed_addr #0 {
  %9 = getelementptr inbounds nuw i8, ptr %4, i64 26
  %10 = load i8, ptr %9, align 2, !range !9, !noundef !10
  store i8 1, ptr %9, align 2
  %.not = icmp eq ptr %3, null
  br i1 %.not, label %15, label %11

11:                                               ; preds = %8
  %12 = tail call ptr @proto_tree_add_item(ptr noundef nonnull %3, i32 noundef %6, ptr noundef %0, i32 noundef %1, i32 noundef -1, i32 noundef 0)
  %13 = load i32, ptr @ett_mapi_OpenEmbeddedMessage_repl, align 4
  %14 = tail call ptr @proto_item_add_subtree(ptr noundef %12, i32 noundef %13)
  br label %15

15:                                               ; preds = %11, %8
  %.074 = phi ptr [ %14, %11 ], [ null, %8 ]
  %.0 = phi ptr [ %12, %11 ], [ null, %8 ]
  %16 = load i32, ptr @hf_mapi_OpenEmbeddedMessage_repl_Reserved, align 4
  %17 = tail call i32 @PIDL_dissect_uint8(ptr noundef %0, i32 noundef %1, ptr noundef %2, ptr noundef %.074, ptr noundef %4, ptr noundef %5, i32 noundef %16, i32 noundef 0)
  %18 = load i32, ptr @hf_mapi_OpenEmbeddedMessage_repl_MessageId, align 4
  %19 = tail call i32 @dissect_ndr_uint64(ptr noundef %0, i32 noundef %17, ptr noundef %2, ptr noundef %.074, ptr noundef %4, ptr noundef %5, i32 noundef %18, ptr noundef null)
  %20 = load i32, ptr @hf_mapi_OpenEmbeddedMessage_repl_HasNamedProperties, align 4
  %21 = tail call i32 @PIDL_dissect_uint8(ptr noundef %0, i32 noundef %19, ptr noundef %2, ptr noundef %.074, ptr noundef %4, ptr noundef %5, i32 noundef %20, i32 noundef 0)
  %22 = load i32, ptr @hf_mapi_OpenEmbeddedMessage_repl_SubjectPrefix, align 4
  %23 = tail call i32 @mapi_dissect_struct_TypedString(ptr noundef %0, i32 noundef %21, ptr noundef %2, ptr noundef %.074, ptr noundef %4, ptr noundef %5, i32 noundef %22, i32 poison)
  %24 = load i32, ptr @hf_mapi_OpenEmbeddedMessage_repl_NormalizedSubject, align 4
  %25 = tail call i32 @mapi_dissect_struct_TypedString(ptr noundef %0, i32 noundef %23, ptr noundef %2, ptr noundef %.074, ptr noundef %4, ptr noundef %5, i32 noundef %24, i32 poison)
  %26 = load i32, ptr @hf_mapi_OpenEmbeddedMessage_repl_RecipientCount, align 4
  %27 = tail call i32 @PIDL_dissect_uint16(ptr noundef %0, i32 noundef %25, ptr noundef %2, ptr noundef %.074, ptr noundef %4, ptr noundef %5, i32 noundef %26, i32 noundef 0)
  %28 = load i32, ptr @hf_mapi_OpenEmbeddedMessage_repl_ColumnCount, align 4
  %29 = tail call i32 @PIDL_dissect_uint16(ptr noundef %0, i32 noundef %27, ptr noundef %2, ptr noundef %.074, ptr noundef %4, ptr noundef %5, i32 noundef %28, i32 noundef 0)
  %30 = tail call i32 @dissect_ndr_ucarray(ptr noundef %0, i32 noundef %29, ptr noundef %2, ptr noundef %.074, ptr noundef %4, ptr noundef %5, ptr noundef nonnull @mapi_dissect_element_OpenEmbeddedMessage_repl_RecipientColumns_)
  %31 = load i32, ptr @hf_mapi_OpenEmbeddedMessage_repl_RowCount, align 4
  %32 = tail call i32 @PIDL_dissect_uint8(ptr noundef %0, i32 noundef %30, ptr noundef %2, ptr noundef %.074, ptr noundef %4, ptr noundef %5, i32 noundef %31, i32 noundef 0)
  %33 = tail call i32 @dissect_ndr_ucarray(ptr noundef %0, i32 noundef %32, ptr noundef %2, ptr noundef %.074, ptr noundef %4, ptr noundef %5, ptr noundef nonnull @mapi_dissect_element_OpenEmbeddedMessage_repl_RecipientRows_)
  %34 = sub i32 %33, %1
  tail call void @proto_item_set_len(ptr noundef %.0, i32 noundef %34)
  store i8 %10, ptr %9, align 2
  ret i32 %33
}